; Function Attrs: mustprogress uwtable
define internal void @"_ZNSt17_Function_handlerIFN3nix3refINS0_11RemoteStore10ConnectionEEEvEZNS2_C1ERKSt3mapINSt7__cxx1112basic_stringIcSt11char_traitsIcESaIcEEESC_St4lessISC_ESaISt4pairIKSC_SC_EEEE3$_0E9_M_invokeERKSt9_Any_data"(ptr dead_on_unwind noalias writable sret(%"class.nix::ref.40") align 8 %0, ptr nocapture noundef nonnull readonly align 8 dereferenceable(16) %1) #5 align 2 personality ptr @__gxx_personality_v0 {
  %.val = load ptr, ptr %1, align 8
  tail call void @llvm.experimental.noalias.scope.decl(metadata !257)
  tail call void @llvm.experimental.noalias.scope.decl(metadata !260)
  tail call void @llvm.experimental.noalias.scope.decl(metadata !263)
  tail call void @_ZN3nix11RemoteStore21openConnectionWrapperEv(ptr dead_on_unwind writable sret(%"class.nix::ref.40") align 8 %0, ptr noundef nonnull align 8 dereferenceable(25) %.val)
  %3 = load ptr, ptr %0, align 8, !alias.scope !266
  invoke void @_ZN3nix11RemoteStore14initConnectionERNS0_10ConnectionE(ptr noundef nonnull align 8 dereferenceable(25) %.val, ptr noundef nonnull align 8 dereferenceable(224) %3)
          to label %"_ZSt10__invoke_rIN3nix3refINS0_11RemoteStore10ConnectionEEERZNS2_C1ERKSt3mapINSt7__cxx1112basic_stringIcSt11char_traitsIcESaIcEEESB_St4lessISB_ESaISt4pairIKSB_SB_EEEE3$_0JEENSt9enable_ifIX16is_invocable_r_vIT_T0_DpT1_EESO_E4typeEOSP_DpOSQ_.exit" unwind label %4

4:                                                ; preds = %2
  %5 = landingpad { ptr, i32 }
          catch ptr null
  %6 = extractvalue { ptr, i32 } %5, 0
  %7 = tail call ptr @__cxa_begin_catch(ptr %6) #29
  %8 = getelementptr inbounds i8, ptr %.val, i64 24
  store atomic i8 1, ptr %8 seq_cst, align 1, !noalias !266
  invoke void @__cxa_rethrow() #30
          to label %15 unwind label %9

9:                                                ; preds = %4
  %10 = landingpad { ptr, i32 }
          cleanup
  invoke void @__cxa_end_catch()
          to label %11 unwind label %12

11:                                               ; preds = %9
  tail call void @_ZN3nix3refINS_11RemoteStore10ConnectionEED2Ev(ptr noundef nonnull align 8 dereferenceable(16) %0) #29
  resume { ptr, i32 } %10

12:                                               ; preds = %9
  %13 = landingpad { ptr, i32 }
          catch ptr null
  %14 = extractvalue { ptr, i32 } %13, 0
  tail call void @__clang_call_terminate(ptr %14) #33
  unreachable

15:                                               ; preds = %4
  unreachable

"_ZSt10__invoke_rIN3nix3refINS0_11RemoteStore10ConnectionEEERZNS2_C1ERKSt3mapINSt7__cxx1112basic_stringIcSt11char_traitsIcESaIcEEESB_St4lessISB_ESaISt4pairIKSB_SB_EEEE3$_0JEENSt9enable_ifIX16is_invocable_r_vIT_T0_DpT1_EESO_E4typeEOSP_DpOSQ_.exit": ; preds = %2
  ret void
}